
vex_electromag.cpp.obj:     file format elf32-littlearm


Disassembly of section .text._ZN3vex13electromagnetD2Ev:

00000000 <vex::electromagnet::~electromagnet()>:
   0:	e59f3014 	ldr	r3, [pc, #20]	; 1c <vex::electromagnet::~electromagnet()+0x1c>
   4:	e92d4010 	push	{r4, lr}
   8:	e1a04000 	mov	r4, r0
   c:	e5803000 	str	r3, [r0]
  10:	ebfffffe 	bl	0 <vex::device::~device()>
  14:	e1a00004 	mov	r0, r4
  18:	e8bd8010 	pop	{r4, pc}
  1c:	00000008 	andeq	r0, r0, r8

Disassembly of section .text._ZN3vex13electromagnetD0Ev:

00000000 <vex::electromagnet::~electromagnet()>:
   0:	e92d4010 	push	{r4, lr}
   4:	e1a04000 	mov	r4, r0
   8:	ebfffffe 	bl	0 <vex::electromagnet::~electromagnet()>
   c:	e1a00004 	mov	r0, r4
  10:	ebfffffe 	bl	0 <operator delete(void*)>
  14:	e1a00004 	mov	r0, r4
  18:	e8bd8010 	pop	{r4, pc}

Disassembly of section .text._ZN3vex13electromagnet9installedEv:

00000000 <vex::electromagnet::installed()>:
   0:	e92d4008 	push	{r3, lr}
   4:	ebfffffe 	bl	0 <vex::device::type()>
   8:	e2400011 	sub	r0, r0, #17
   c:	e16f0f10 	clz	r0, r0
  10:	e1a002a0 	lsr	r0, r0, #5
  14:	e8bd8008 	pop	{r3, pc}

Disassembly of section .text._ZN3vex13electromagnet5valueEv:

00000000 <vex::electromagnet::value()>:
   0:	e5900008 	ldr	r0, [r0, #8]
   4:	eafffffe 	b	0 <vexMagnetStatusGet>

Disassembly of section .text._ZN3vex13electromagnetC2El:

00000000 <vex::electromagnet::electromagnet(long)>:
   0:	e92d4010 	push	{r4, lr}
   4:	e1a04000 	mov	r4, r0
   8:	ebfffffe 	bl	0 <vex::device::device(long)>
   c:	e59f3010 	ldr	r3, [pc, #16]	; 24 <vex::electromagnet::electromagnet(long)+0x24>
  10:	e1a00004 	mov	r0, r4
  14:	e5843000 	str	r3, [r4]
  18:	e3a03032 	mov	r3, #50	; 0x32
  1c:	e5843010 	str	r3, [r4, #16]
  20:	e8bd8010 	pop	{r4, pc}
  24:	00000008 	andeq	r0, r0, r8

Disassembly of section .text._ZN3vex13electromagnet8setPowerEm:

00000000 <vex::electromagnet::setPower(unsigned long)>:
   0:	e3510064 	cmp	r1, #100	; 0x64
   4:	95801010 	strls	r1, [r0, #16]
   8:	83a03064 	movhi	r3, #100	; 0x64
   c:	85803010 	strhi	r3, [r0, #16]
  10:	e12fff1e 	bx	lr

Disassembly of section .text._ZN3vex13electromagnet6pickupEv:

00000000 <vex::electromagnet::pickup()>:
   0:	e1a03000 	mov	r3, r0
   4:	e3a02ffa 	mov	r2, #1000	; 0x3e8
   8:	e5900008 	ldr	r0, [r0, #8]
   c:	e5931010 	ldr	r1, [r3, #16]
  10:	eafffffe 	b	0 <vexMagnetPowerSet>

Disassembly of section .text._ZN3vex13electromagnet6pickupEdNS_9timeUnitsEl:

00000000 <vex::electromagnet::pickup(double, vex::timeUnits, long)>:
   0:	ec432b30 	vmov	d16, r2, r3
   4:	e59d1004 	ldr	r1, [sp, #4]
   8:	e59d3000 	ldr	r3, [sp]
   c:	eddf1b0b 	vldr	d17, [pc, #44]	; 40 <vex::electromagnet::pickup(double, vex::timeUnits, long)+0x40>
  10:	e3510000 	cmp	r1, #0
  14:	b2611000 	rsblt	r1, r1, #0
  18:	e5900008 	ldr	r0, [r0, #8]
  1c:	eef50b40 	vcmp.f64	d16, #0.0
  20:	eef1fa10 	vmrs	APSR_nzcv, fpscr
  24:	4ef00b61 	vmovmi.f64	d16, d17
  28:	e3530001 	cmp	r3, #1
  2c:	1ddf1b05 	vldrne	d17, [pc, #20]	; 48 <vex::electromagnet::pickup(double, vex::timeUnits, long)+0x48>
  30:	1e600ba1 	vmulne.f64	d16, d16, d17
  34:	eefd7be0 	vcvt.s32.f64	s15, d16
  38:	ee172a90 	vmov	r2, s15
  3c:	eafffffe 	b	0 <vexMagnetPowerSet>
	...
  4c:	408f4000 	addmi	r4, pc, r0

Disassembly of section .text._ZN3vex13electromagnet6pickupEdNS_9timeUnitsE:

00000000 <vex::electromagnet::pickup(double, vex::timeUnits)>:
   0:	e92d4007 	push	{r0, r1, r2, lr}
   4:	e59d1010 	ldr	r1, [sp, #16]
   8:	e58d1000 	str	r1, [sp]
   c:	e5901010 	ldr	r1, [r0, #16]
  10:	e58d1004 	str	r1, [sp, #4]
  14:	ebfffffe 	bl	0 <vex::electromagnet::pickup(double, vex::timeUnits)>
  18:	e28dd00c 	add	sp, sp, #12
  1c:	e49df004 	pop	{pc}		; (ldr pc, [sp], #4)

Disassembly of section .text._ZN3vex13electromagnet4dropEv:

00000000 <vex::electromagnet::drop()>:
   0:	e5901010 	ldr	r1, [r0, #16]
   4:	e3a02f7d 	mov	r2, #500	; 0x1f4
   8:	e5900008 	ldr	r0, [r0, #8]
   c:	e2611000 	rsb	r1, r1, #0
  10:	eafffffe 	b	0 <vexMagnetPowerSet>

Disassembly of section .text._ZN3vex13electromagnet4dropEdNS_9timeUnitsEl:

00000000 <vex::electromagnet::drop(double, vex::timeUnits, long)>:
   0:	ec432b30 	vmov	d16, r2, r3
   4:	e59d1004 	ldr	r1, [sp, #4]
   8:	e59d3000 	ldr	r3, [sp]
   c:	eddf1b0d 	vldr	d17, [pc, #52]	; 48 <vex::electromagnet::drop(double, vex::timeUnits, long)+0x48>
  10:	e3510000 	cmp	r1, #0
  14:	b2611000 	rsblt	r1, r1, #0
  18:	e5900008 	ldr	r0, [r0, #8]
  1c:	e2611000 	rsb	r1, r1, #0
  20:	eef50b40 	vcmp.f64	d16, #0.0
  24:	eef1fa10 	vmrs	APSR_nzcv, fpscr
  28:	4ef00b61 	vmovmi.f64	d16, d17
  2c:	e3530001 	cmp	r3, #1
  30:	1ddf1b06 	vldrne	d17, [pc, #24]	; 50 <vex::electromagnet::drop(double, vex::timeUnits, long)+0x50>
  34:	1e600ba1 	vmulne.f64	d16, d16, d17
  38:	eefd7be0 	vcvt.s32.f64	s15, d16
  3c:	ee172a90 	vmov	r2, s15
  40:	eafffffe 	b	0 <vexMagnetPowerSet>
  44:	e320f000 	nop	{0}
	...
  54:	408f4000 	addmi	r4, pc, r0

Disassembly of section .text._ZN3vex13electromagnet4dropEdNS_9timeUnitsE:

00000000 <vex::electromagnet::drop(double, vex::timeUnits)>:
   0:	e92d4007 	push	{r0, r1, r2, lr}
   4:	e59d1010 	ldr	r1, [sp, #16]
   8:	e58d1000 	str	r1, [sp]
   c:	e5901010 	ldr	r1, [r0, #16]
  10:	e58d1004 	str	r1, [sp, #4]
  14:	ebfffffe 	bl	0 <vex::electromagnet::drop(double, vex::timeUnits)>
  18:	e28dd00c 	add	sp, sp, #12
  1c:	e49df004 	pop	{pc}		; (ldr pc, [sp], #4)

Disassembly of section .text._ZN3vex13electromagnet11temperatureENS_16temperatureUnitsE:

00000000 <vex::electromagnet::temperature(vex::temperatureUnits)>:
   0:	e92d4010 	push	{r4, lr}
   4:	e1a04001 	mov	r4, r1
   8:	e5900008 	ldr	r0, [r0, #8]
   c:	ebfffffe 	bl	0 <vexMagnetTemperatureGet>
  10:	e3540001 	cmp	r4, #1
  14:	0ddf1b05 	vldreq	d17, [pc, #20]	; 30 <vex::electromagnet::temperature(vex::temperatureUnits)+0x30>
  18:	0ddf2b06 	vldreq	d18, [pc, #24]	; 38 <vex::electromagnet::temperature(vex::temperatureUnits)+0x38>
  1c:	ec410b30 	vmov	d16, r0, r1
  20:	0e401ba2 	vmlaeq.f64	d17, d16, d18
  24:	0ef00b61 	vmoveq.f64	d16, d17
  28:	ec510b30 	vmov	r0, r1, d16
  2c:	e8bd8010 	pop	{r4, pc}
  30:	00000000 	andeq	r0, r0, r0
  34:	40400000 	submi	r0, r0, r0
  38:	cccccccd 	stclgt	12, cr12, [ip], {205}	; 0xcd
  3c:	3ffccccc 	svccc	0x00fccccc
